target datalayout = "e-m:e-p270:32:32-p271:32:32-p272:64:64-i64:64-i128:128-f80:128-n8:16:32:64-S128"
target triple = "x86_64-pc-linux-gnu"

%"class.clang::OpenCLOptions" = type { %"class.llvm::StringMap" }
%"class.llvm::StringMap" = type { %"class.llvm::StringMapImpl" }
%"class.llvm::StringMapImpl" = type { ptr, i32, i32, i32, i32 }
%"class.llvm::StringMapEntryStorage" = type <{ %"class.llvm::StringMapEntryBase", %"struct.clang::OpenCLOptions::OpenCLOptionInfo", [4 x i8] }>
%"class.llvm::StringMapEntryBase" = type { i64 }
%"struct.clang::OpenCLOptions::OpenCLOptionInfo" = type <{ i8, [3 x i8], i32, i32, i32, i8, i8, [2 x i8] }>
%"class.llvm::StringMapIterator" = type { %"class.llvm::StringMapIterBase.11" }
%"class.llvm::StringMapIterBase.11" = type { ptr }

; Function Attrs: mustprogress nounwind uwtable
define linkonce_odr hidden noundef ptr @_ZN4llvm13StringMapImpl15getTombstoneValEv() #0 comdat align 2 {
  ret ptr inttoptr (i64 -8 to ptr)
}

; Function Attrs: mustprogress nounwind uwtable
define linkonce_odr hidden void @_ZN4llvm17StringMapIterBaseINS_17StringMapIteratorIN5clang13OpenCLOptions16OpenCLOptionInfoEEENS_14StringMapEntryIS4_EEEC2EPPNS_18StringMapEntryBaseEb(ptr noundef nonnull align 8 dereferenceable(8) %0, ptr noundef %1, i1 noundef zeroext %2) unnamed_addr #0 comdat align 2 {
  %4 = alloca ptr, align 8
  %5 = alloca ptr, align 8
  %6 = alloca i8, align 1
  store ptr %0, ptr %4, align 8
  store ptr %1, ptr %5, align 8
  %7 = zext i1 %2 to i8
  store i8 %7, ptr %6, align 1
  %8 = load ptr, ptr %4, align 8
  %9 = getelementptr inbounds nuw %"class.llvm::StringMapIterBase.11", ptr %8, i32 0, i32 0
  %10 = load ptr, ptr %5, align 8
  store ptr %10, ptr %9, align 8
  %11 = load i8, ptr %6, align 1
  %12 = trunc i8 %11 to i1
  br i1 %12, label %14, label %13

13:                                               ; preds = %3
  call void @_ZN4llvm17StringMapIterBaseINS_17StringMapIteratorIN5clang13OpenCLOptions16OpenCLOptionInfoEEENS_14StringMapEntryIS4_EEE23AdvancePastEmptyBucketsEv(ptr noundef nonnull align 8 dereferenceable(8) %8)
  br label %14

14:                                               ; preds = %13, %3
  ret void
}

; Function Attrs: mustprogress nounwind uwtable
define linkonce_odr hidden void @_ZN4llvm17StringMapIterBaseINS_17StringMapIteratorIN5clang13OpenCLOptions16OpenCLOptionInfoEEENS_14StringMapEntryIS4_EEE23AdvancePastEmptyBucketsEv(ptr noundef nonnull align 8 dereferenceable(8) %0) #0 comdat align 2 {
  %2 = alloca ptr, align 8
  store ptr %0, ptr %2, align 8
  %3 = load ptr, ptr %2, align 8
  br label %4

4:                                                ; preds = %17, %1
  %5 = getelementptr inbounds nuw %"class.llvm::StringMapIterBase.11", ptr %3, i32 0, i32 0
  %6 = load ptr, ptr %5, align 8
  %7 = load ptr, ptr %6, align 8
  %8 = icmp eq ptr %7, null
  br i1 %8, label %15, label %9

9:                                                ; preds = %4
  %10 = getelementptr inbounds nuw %"class.llvm::StringMapIterBase.11", ptr %3, i32 0, i32 0
  %11 = load ptr, ptr %10, align 8
  %12 = load ptr, ptr %11, align 8
  %13 = call noundef ptr @_ZN4llvm13StringMapImpl15getTombstoneValEv()
  %14 = icmp eq ptr %12, %13
  br label %15

15:                                               ; preds = %9, %4
  %16 = phi i1 [ true, %4 ], [ %14, %9 ]
  br i1 %16, label %17, label %21

17:                                               ; preds = %15
  %18 = getelementptr inbounds nuw %"class.llvm::StringMapIterBase.11", ptr %3, i32 0, i32 0
  %19 = load ptr, ptr %18, align 8
  %20 = getelementptr inbounds ptr, ptr %19, i32 1
  store ptr %20, ptr %18, align 8
  br label %4, !llvm.loop !9

21:                                               ; preds = %15
  ret void
}

; Function Attrs: mustprogress nounwind uwtable
define linkonce_odr hidden noundef zeroext i1 @_ZN4llvmeqERKNS_17StringMapIteratorIN5clang13OpenCLOptions16OpenCLOptionInfoEEES6_(ptr noundef nonnull align 8 dereferenceable(8) %0, ptr noundef nonnull align 8 dereferenceable(8) %1) #0 comdat {
  %3 = alloca ptr, align 8
  %4 = alloca ptr, align 8
  store ptr %0, ptr %3, align 8
  store ptr %1, ptr %4, align 8
  %5 = load ptr, ptr %3, align 8
  %6 = getelementptr inbounds nuw %"class.llvm::StringMapIterBase.11", ptr %5, i32 0, i32 0
  %7 = load ptr, ptr %6, align 8
  %8 = load ptr, ptr %4, align 8
  %9 = getelementptr inbounds nuw %"class.llvm::StringMapIterBase.11", ptr %8, i32 0, i32 0
  %10 = load ptr, ptr %9, align 8
  %11 = icmp eq ptr %7, %10
  ret i1 %11
}

; Function Attrs: mustprogress nounwind uwtable
define linkonce_odr hidden void @_ZN4llvm17StringMapIteratorIN5clang13OpenCLOptions16OpenCLOptionInfoEEC2EPPNS_18StringMapEntryBaseEb(ptr noundef nonnull align 8 dereferenceable(8) %0, ptr noundef %1, i1 noundef zeroext %2) unnamed_addr #0 comdat align 2 {
  %4 = alloca ptr, align 8
  %5 = alloca ptr, align 8
  %6 = alloca i8, align 1
  store ptr %0, ptr %4, align 8
  store ptr %1, ptr %5, align 8
  %7 = zext i1 %2 to i8
  store i8 %7, ptr %6, align 1
  %8 = load ptr, ptr %4, align 8
  %9 = load ptr, ptr %5, align 8
  %10 = load i8, ptr %6, align 1
  %11 = trunc i8 %10 to i1
  call void @_ZN4llvm17StringMapIterBaseINS_17StringMapIteratorIN5clang13OpenCLOptions16OpenCLOptionInfoEEENS_14StringMapEntryIS4_EEEC2EPPNS_18StringMapEntryBaseEb(ptr noundef nonnull align 8 dereferenceable(8) %8, ptr noundef %9, i1 noundef zeroext %11)
  ret void
}

; Function Attrs: mustprogress nounwind uwtable
define linkonce_odr hidden noundef nonnull align 8 dereferenceable(8) ptr @_ZN4llvm17StringMapIterBaseINS_17StringMapIteratorIN5clang13OpenCLOptions16OpenCLOptionInfoEEENS_14StringMapEntryIS4_EEEppEv(ptr noundef nonnull align 8 dereferenceable(8) %0) #0 comdat align 2 {
  %2 = alloca ptr, align 8
  store ptr %0, ptr %2, align 8
  %3 = load ptr, ptr %2, align 8
  %4 = getelementptr inbounds nuw %"class.llvm::StringMapIterBase.11", ptr %3, i32 0, i32 0
  %5 = load ptr, ptr %4, align 8
  %6 = getelementptr inbounds ptr, ptr %5, i32 1
  store ptr %6, ptr %4, align 8
  call void @_ZN4llvm17StringMapIterBaseINS_17StringMapIteratorIN5clang13OpenCLOptions16OpenCLOptionInfoEEENS_14StringMapEntryIS4_EEE23AdvancePastEmptyBucketsEv(ptr noundef nonnull align 8 dereferenceable(8) %3)
  ret ptr %3
}

; Function Attrs: mustprogress nounwind uwtable
define linkonce_odr hidden noundef nonnull align 4 dereferenceable(18) ptr @_ZN4llvm21StringMapEntryStorageIN5clang13OpenCLOptions16OpenCLOptionInfoEE8getValueEv(ptr noundef nonnull align 8 dereferenceable(28) %0) #0 comdat align 2 {
  %2 = alloca ptr, align 8
  store ptr %0, ptr %2, align 8
  %3 = load ptr, ptr %2, align 8
  %4 = getelementptr inbounds nuw %"class.llvm::StringMapEntryStorage", ptr %3, i32 0, i32 1
  ret ptr %4
}

; Function Attrs: mustprogress nounwind uwtable
define linkonce_odr hidden noundef nonnull align 8 dereferenceable(32) ptr @_ZNK4llvm17StringMapIteratorIN5clang13OpenCLOptions16OpenCLOptionInfoEEdeEv(ptr noundef nonnull align 8 dereferenceable(8) %0) #0 comdat align 2 {
  %2 = alloca ptr, align 8
  store ptr %0, ptr %2, align 8
  %3 = load ptr, ptr %2, align 8
  %4 = getelementptr inbounds nuw %"class.llvm::StringMapIterBase.11", ptr %3, i32 0, i32 0
  %5 = load ptr, ptr %4, align 8
  %6 = load ptr, ptr %5, align 8
  ret ptr %6
}

; Function Attrs: mustprogress nounwind uwtable
define linkonce_odr hidden noundef zeroext i1 @_ZNK4llvm20iterator_facade_baseINS_17StringMapIteratorIN5clang13OpenCLOptions16OpenCLOptionInfoEEESt20forward_iterator_tagNS_14StringMapEntryIS4_EElPS8_RS8_EneERKS5_(ptr noundef nonnull align 1 dereferenceable(1) %0, ptr noundef nonnull align 8 dereferenceable(8) %1) #0 comdat align 2 {
  %3 = alloca ptr, align 8
  %4 = alloca ptr, align 8
  store ptr %0, ptr %3, align 8
  store ptr %1, ptr %4, align 8
  %5 = load ptr, ptr %3, align 8
  %6 = load ptr, ptr %4, align 8
  %7 = call noundef zeroext i1 @_ZN4llvmeqERKNS_17StringMapIteratorIN5clang13OpenCLOptions16OpenCLOptionInfoEEES6_(ptr noundef nonnull align 8 dereferenceable(8) %5, ptr noundef nonnull align 8 dereferenceable(8) %6)
  %8 = xor i1 %7, true
  ret i1 %8
}

; Function Attrs: mustprogress nounwind uwtable
define linkonce_odr hidden ptr @_ZN4llvm9StringMapIN5clang13OpenCLOptions16OpenCLOptionInfoENS_15MallocAllocatorEE3endEv(ptr noundef nonnull align 8 dereferenceable(24) %0) #0 comdat align 2 {
  %2 = alloca %"class.llvm::StringMapIterator", align 8
  %3 = alloca ptr, align 8
  store ptr %0, ptr %3, align 8
  %4 = load ptr, ptr %3, align 8
  %5 = getelementptr inbounds nuw %"class.llvm::StringMapImpl", ptr %4, i32 0, i32 0
  %6 = load ptr, ptr %5, align 8
  %7 = getelementptr inbounds nuw %"class.llvm::StringMapImpl", ptr %4, i32 0, i32 1
  %8 = load i32, ptr %7, align 8
  %9 = zext i32 %8 to i64
  %10 = getelementptr inbounds ptr, ptr %6, i64 %9
  call void @_ZN4llvm17StringMapIteratorIN5clang13OpenCLOptions16OpenCLOptionInfoEEC2EPPNS_18StringMapEntryBaseEb(ptr noundef nonnull align 8 dereferenceable(8) %2, ptr noundef %10, i1 noundef zeroext true)
  %11 = getelementptr inbounds nuw %"class.llvm::StringMapIterator", ptr %2, i32 0, i32 0
  %12 = getelementptr inbounds nuw %"class.llvm::StringMapIterBase.11", ptr %11, i32 0, i32 0
  %13 = load ptr, ptr %12, align 8
  ret ptr %13
}

; Function Attrs: mustprogress nounwind uwtable
define linkonce_odr hidden ptr @_ZN4llvm9StringMapIN5clang13OpenCLOptions16OpenCLOptionInfoENS_15MallocAllocatorEE5beginEv(ptr noundef nonnull align 8 dereferenceable(24) %0) #0 comdat align 2 {
  %2 = alloca %"class.llvm::StringMapIterator", align 8
  %3 = alloca ptr, align 8
  store ptr %0, ptr %3, align 8
  %4 = load ptr, ptr %3, align 8
  %5 = getelementptr inbounds nuw %"class.llvm::StringMapImpl", ptr %4, i32 0, i32 0
  %6 = load ptr, ptr %5, align 8
  %7 = getelementptr inbounds nuw %"class.llvm::StringMapImpl", ptr %4, i32 0, i32 1
  %8 = load i32, ptr %7, align 8
  %9 = icmp eq i32 %8, 0
  call void @_ZN4llvm17StringMapIteratorIN5clang13OpenCLOptions16OpenCLOptionInfoEEC2EPPNS_18StringMapEntryBaseEb(ptr noundef nonnull align 8 dereferenceable(8) %2, ptr noundef %6, i1 noundef zeroext %9)
  %10 = getelementptr inbounds nuw %"class.llvm::StringMapIterator", ptr %2, i32 0, i32 0
  %11 = getelementptr inbounds nuw %"class.llvm::StringMapIterBase.11", ptr %10, i32 0, i32 0
  %12 = load ptr, ptr %11, align 8
  ret ptr %12
}

; Function Attrs: mustprogress nounwind uwtable
define dso_local void @_ZN5clang13OpenCLOptions10disableAllEv(ptr noundef nonnull align 8 dereferenceable(24) %0) #0 align 2 {
  %2 = alloca ptr, align 8
  %3 = alloca ptr, align 8
  %4 = alloca %"class.llvm::StringMapIterator", align 8
  %5 = alloca %"class.llvm::StringMapIterator", align 8
  %6 = alloca ptr, align 8
  store ptr %0, ptr %2, align 8
  %7 = load ptr, ptr %2, align 8
  %8 = getelementptr inbounds nuw %"class.clang::OpenCLOptions", ptr %7, i32 0, i32 0
  store ptr %8, ptr %3, align 8
  %9 = load ptr, ptr %3, align 8
  %10 = call ptr @_ZN4llvm9StringMapIN5clang13OpenCLOptions16OpenCLOptionInfoENS_15MallocAllocatorEE5beginEv(ptr noundef nonnull align 8 dereferenceable(24) %9)
  %11 = getelementptr inbounds nuw %"class.llvm::StringMapIterator", ptr %4, i32 0, i32 0
  %12 = getelementptr inbounds nuw %"class.llvm::StringMapIterBase.11", ptr %11, i32 0, i32 0
  store ptr %10, ptr %12, align 8
  %13 = load ptr, ptr %3, align 8
  %14 = call ptr @_ZN4llvm9StringMapIN5clang13OpenCLOptions16OpenCLOptionInfoENS_15MallocAllocatorEE3endEv(ptr noundef nonnull align 8 dereferenceable(24) %13)
  %15 = getelementptr inbounds nuw %"class.llvm::StringMapIterator", ptr %5, i32 0, i32 0
  %16 = getelementptr inbounds nuw %"class.llvm::StringMapIterBase.11", ptr %15, i32 0, i32 0
  store ptr %14, ptr %16, align 8
  br label %17

17:                                               ; preds = %24, %1
  %18 = call noundef zeroext i1 @_ZNK4llvm20iterator_facade_baseINS_17StringMapIteratorIN5clang13OpenCLOptions16OpenCLOptionInfoEEESt20forward_iterator_tagNS_14StringMapEntryIS4_EElPS8_RS8_EneERKS5_(ptr noundef nonnull align 1 dereferenceable(1) %4, ptr noundef nonnull align 8 dereferenceable(8) %5)
  br i1 %18, label %19, label %26

19:                                               ; preds = %17
  %20 = call noundef nonnull align 8 dereferenceable(32) ptr @_ZNK4llvm17StringMapIteratorIN5clang13OpenCLOptions16OpenCLOptionInfoEEdeEv(ptr noundef nonnull align 8 dereferenceable(8) %4)
  store ptr %20, ptr %6, align 8
  %21 = load ptr, ptr %6, align 8
  %22 = call noundef nonnull align 4 dereferenceable(18) ptr @_ZN4llvm21StringMapEntryStorageIN5clang13OpenCLOptions16OpenCLOptionInfoEE8getValueEv(ptr noundef nonnull align 8 dereferenceable(28) %21)
  %23 = getelementptr inbounds nuw %"struct.clang::OpenCLOptions::OpenCLOptionInfo", ptr %22, i32 0, i32 6
  store i8 0, ptr %23, align 1
  br label %24

24:                                               ; preds = %19
  %25 = call noundef nonnull align 8 dereferenceable(8) ptr @_ZN4llvm17StringMapIterBaseINS_17StringMapIteratorIN5clang13OpenCLOptions16OpenCLOptionInfoEEENS_14StringMapEntryIS4_EEEppEv(ptr noundef nonnull align 8 dereferenceable(8) %4)
  br label %17

26:                                               ; preds = %17
  ret void
}