; Function Attrs: mustprogress nofree norecurse nosync nounwind memory(readwrite, inaccessiblemem: none) uwtable
define dso_local void @_ZN5clang13OpenCLOptions10disableAllEv(ptr nocapture noundef nonnull readonly align 8 dereferenceable(24) %0) local_unnamed_addr #2 align 2 {
  %2 = load ptr, ptr %0, align 8
  %3 = getelementptr inbounds nuw i8, ptr %0, i64 8
  %4 = load i32, ptr %3, align 8
  %5 = icmp eq i32 %4, 0
  br i1 %5, label %_ZN4llvm9StringMapIN5clang13OpenCLOptions16OpenCLOptionInfoENS_15MallocAllocatorEE5beginEv.exit, label %.preheader.i.i.i

.preheader.i.i.i:                                 ; preds = %1, %.critedge.i.i.i.i
  %.sroa.0.0.i = phi ptr [ %7, %.critedge.i.i.i.i ], [ %2, %1 ]
  %6 = load ptr, ptr %.sroa.0.0.i, align 8
  %magicptr.i.i.i.i = ptrtoint ptr %6 to i64
  switch i64 %magicptr.i.i.i.i, label %_ZN4llvm9StringMapIN5clang13OpenCLOptions16OpenCLOptionInfoENS_15MallocAllocatorEE5beginEv.exit [
    i64 0, label %.critedge.i.i.i.i
    i64 -8, label %.critedge.i.i.i.i
  ]

.critedge.i.i.i.i:                                ; preds = %.preheader.i.i.i, %.preheader.i.i.i
  %7 = getelementptr inbounds i8, ptr %.sroa.0.0.i, i64 8
  br label %.preheader.i.i.i, !llvm.loop !6

_ZN4llvm9StringMapIN5clang13OpenCLOptions16OpenCLOptionInfoENS_15MallocAllocatorEE5beginEv.exit: ; preds = %.preheader.i.i.i, %1
  %.sroa.0.1.i = phi ptr [ %2, %1 ], [ %.sroa.0.0.i, %.preheader.i.i.i ]
  %8 = zext i32 %4 to i64
  %9 = getelementptr inbounds ptr, ptr %2, i64 %8
  %.not7 = icmp eq ptr %.sroa.0.1.i, %9
  br i1 %.not7, label %_ZN4llvm17StringMapIterBaseINS_17StringMapIteratorIN5clang13OpenCLOptions16OpenCLOptionInfoEEENS_14StringMapEntryIS4_EEEppEv.exit._crit_edge, label %.lr.ph.preheader

.lr.ph.preheader:                                 ; preds = %_ZN4llvm9StringMapIN5clang13OpenCLOptions16OpenCLOptionInfoENS_15MallocAllocatorEE5beginEv.exit
  %.pre = load ptr, ptr %.sroa.0.1.i, align 8
  br label %.lr.ph

_ZN4llvm17StringMapIterBaseINS_17StringMapIteratorIN5clang13OpenCLOptions16OpenCLOptionInfoEEENS_14StringMapEntryIS4_EEEppEv.exit.loopexit: ; preds = %.critedge.i.i
  %.not = icmp eq ptr %storemerge.i, %9
  br i1 %.not, label %_ZN4llvm17StringMapIterBaseINS_17StringMapIteratorIN5clang13OpenCLOptions16OpenCLOptionInfoEEENS_14StringMapEntryIS4_EEEppEv.exit._crit_edge, label %.lr.ph

.lr.ph:                                           ; preds = %.lr.ph.preheader, %_ZN4llvm17StringMapIterBaseINS_17StringMapIteratorIN5clang13OpenCLOptions16OpenCLOptionInfoEEENS_14StringMapEntryIS4_EEEppEv.exit.loopexit
  %10 = phi ptr [ %12, %_ZN4llvm17StringMapIterBaseINS_17StringMapIteratorIN5clang13OpenCLOptions16OpenCLOptionInfoEEENS_14StringMapEntryIS4_EEEppEv.exit.loopexit ], [ %.pre, %.lr.ph.preheader ]
  %.sroa.04.08 = phi ptr [ %storemerge.i, %_ZN4llvm17StringMapIterBaseINS_17StringMapIteratorIN5clang13OpenCLOptions16OpenCLOptionInfoEEENS_14StringMapEntryIS4_EEEppEv.exit.loopexit ], [ %.sroa.0.1.i, %.lr.ph.preheader ]
  %11 = getelementptr inbounds i8, ptr %10, i64 25
  store i8 0, ptr %11, align 1
  br label %.critedge.i.i

.critedge.i.i:                                    ; preds = %.critedge.i.i.backedge, %.lr.ph
  %.pn.i = phi ptr [ %.sroa.04.08, %.lr.ph ], [ %storemerge.i, %.critedge.i.i.backedge ]
  %storemerge.i = getelementptr inbounds i8, ptr %.pn.i, i64 8
  %12 = load ptr, ptr %storemerge.i, align 8
  %magicptr.i.i = ptrtoint ptr %12 to i64
  switch i64 %magicptr.i.i, label %_ZN4llvm17StringMapIterBaseINS_17StringMapIteratorIN5clang13OpenCLOptions16OpenCLOptionInfoEEENS_14StringMapEntryIS4_EEEppEv.exit.loopexit [
    i64 0, label %.critedge.i.i.backedge
    i64 -8, label %.critedge.i.i.backedge
  ]

.critedge.i.i.backedge:                           ; preds = %.critedge.i.i, %.critedge.i.i
  br label %.critedge.i.i, !llvm.loop !6

_ZN4llvm17StringMapIterBaseINS_17StringMapIteratorIN5clang13OpenCLOptions16OpenCLOptionInfoEEENS_14StringMapEntryIS4_EEEppEv.exit._crit_edge: ; preds = %_ZN4llvm17StringMapIterBaseINS_17StringMapIteratorIN5clang13OpenCLOptions16OpenCLOptionInfoEEENS_14StringMapEntryIS4_EEEppEv.exit.loopexit, %_ZN4llvm9StringMapIN5clang13OpenCLOptions16OpenCLOptionInfoENS_15MallocAllocatorEE5beginEv.exit
  ret void
}